target datalayout = "e-m:e-p270:32:32-p271:32:32-p272:64:64-i64:64-i128:128-f80:128-n8:16:32:64-S128"
target triple = "x86_64-pc-linux-gnu"

%struct.jsmntok_t = type { i32, i32, i32, i32 }

; Function Attrs: null_pointer_is_valid sspstrong uwtable
define ptr @json_get_string(ptr noundef %0, ptr noundef %1, ptr noundef %2) #0 {
  %4 = alloca ptr, align 8
  %5 = alloca ptr, align 8
  %6 = alloca ptr, align 8
  %7 = alloca ptr, align 8
  %8 = alloca i32, align 4
  %9 = alloca ptr, align 8
  %10 = alloca i32, align 4
  store ptr %0, ptr %5, align 8
  store ptr %1, ptr %6, align 8
  store ptr %2, ptr %7, align 8
  call void @llvm.lifetime.start.p0(i64 4, ptr %8) #9
  call void @llvm.lifetime.start.p0(i64 8, ptr %9) #9
  %11 = load ptr, ptr %6, align 8
  %12 = getelementptr %struct.jsmntok_t, ptr %11, i64 1
  store ptr %12, ptr %9, align 8
  store i32 0, ptr %8, align 4
  br label %13

13:                                               ; preds = %93, %3
  %14 = load i32, ptr %8, align 4
  %15 = load ptr, ptr %6, align 8
  %16 = getelementptr inbounds nuw %struct.jsmntok_t, ptr %15, i32 0, i32 3
  %17 = load i32, ptr %16, align 4
  %18 = icmp slt i32 %14, %17
  br i1 %18, label %19, label %96

19:                                               ; preds = %13
  %20 = load ptr, ptr %9, align 8
  %21 = getelementptr inbounds nuw %struct.jsmntok_t, ptr %20, i32 0, i32 0
  %22 = load i32, ptr %21, align 4
  %23 = icmp eq i32 %22, 3
  br i1 %23, label %24, label %90

24:                                               ; preds = %19
  %25 = load ptr, ptr %5, align 8
  %26 = load ptr, ptr %9, align 8
  %27 = getelementptr inbounds nuw %struct.jsmntok_t, ptr %26, i32 0, i32 1
  %28 = load i32, ptr %27, align 4
  %29 = sext i32 %28 to i64
  %30 = getelementptr i8, ptr %25, i64 %29
  %31 = load ptr, ptr %7, align 8
  %32 = load ptr, ptr %9, align 8
  %33 = getelementptr inbounds nuw %struct.jsmntok_t, ptr %32, i32 0, i32 2
  %34 = load i32, ptr %33, align 4
  %35 = load ptr, ptr %9, align 8
  %36 = getelementptr inbounds nuw %struct.jsmntok_t, ptr %35, i32 0, i32 1
  %37 = load i32, ptr %36, align 4
  %38 = sub i32 %34, %37
  %39 = sext i32 %38 to i64
  %40 = call i32 @strncmp(ptr noundef %30, ptr noundef %31, i64 noundef %39) #12
  %41 = icmp ne i32 %40, 0
  br i1 %41, label %90, label %42

42:                                               ; preds = %24
  %43 = load ptr, ptr %7, align 8
  %44 = call i64 @strlen(ptr noundef %43) #12
  %45 = load ptr, ptr %9, align 8
  %46 = getelementptr inbounds nuw %struct.jsmntok_t, ptr %45, i32 0, i32 2
  %47 = load i32, ptr %46, align 4
  %48 = load ptr, ptr %9, align 8
  %49 = getelementptr inbounds nuw %struct.jsmntok_t, ptr %48, i32 0, i32 1
  %50 = load i32, ptr %49, align 4
  %51 = sub i32 %47, %50
  %52 = sext i32 %51 to i64
  %53 = icmp eq i64 %44, %52
  br i1 %53, label %54, label %90

54:                                               ; preds = %42
  %55 = load ptr, ptr %9, align 8
  %56 = getelementptr inbounds nuw %struct.jsmntok_t, ptr %55, i32 0, i32 3
  %57 = load i32, ptr %56, align 4
  %58 = icmp eq i32 %57, 1
  br i1 %58, label %59, label %90

59:                                               ; preds = %54
  %60 = load ptr, ptr %9, align 8
  %61 = getelementptr %struct.jsmntok_t, ptr %60, i64 1
  %62 = getelementptr inbounds nuw %struct.jsmntok_t, ptr %61, i32 0, i32 0
  %63 = load i32, ptr %62, align 4
  %64 = icmp eq i32 %63, 3
  br i1 %64, label %65, label %90

65:                                               ; preds = %59
  %66 = load ptr, ptr %5, align 8
  %67 = load ptr, ptr %9, align 8
  %68 = getelementptr %struct.jsmntok_t, ptr %67, i64 1
  %69 = getelementptr inbounds nuw %struct.jsmntok_t, ptr %68, i32 0, i32 2
  %70 = load i32, ptr %69, align 4
  %71 = sext i32 %70 to i64
  %72 = getelementptr i8, ptr %66, i64 %71
  store i8 0, ptr %72, align 1
  %73 = load ptr, ptr %5, align 8
  %74 = load ptr, ptr %9, align 8
  %75 = getelementptr %struct.jsmntok_t, ptr %74, i64 1
  %76 = getelementptr inbounds nuw %struct.jsmntok_t, ptr %75, i32 0, i32 1
  %77 = load i32, ptr %76, align 4
  %78 = sext i32 %77 to i64
  %79 = getelementptr i8, ptr %73, i64 %78
  %80 = call zeroext i1 @json_decode_string_inplace(ptr noundef %79)
  br i1 %80, label %82, label %81

81:                                               ; preds = %65
  store ptr null, ptr %4, align 8
  store i32 1, ptr %10, align 4
  br label %97

82:                                               ; preds = %65
  %83 = load ptr, ptr %5, align 8
  %84 = load ptr, ptr %9, align 8
  %85 = getelementptr %struct.jsmntok_t, ptr %84, i64 1
  %86 = getelementptr inbounds nuw %struct.jsmntok_t, ptr %85, i32 0, i32 1
  %87 = load i32, ptr %86, align 4
  %88 = sext i32 %87 to i64
  %89 = getelementptr i8, ptr %83, i64 %88
  store ptr %89, ptr %4, align 8
  store i32 1, ptr %10, align 4
  br label %97

90:                                               ; preds = %59, %54, %42, %24, %19
  %91 = load ptr, ptr %9, align 8
  %92 = call ptr @json_get_next_object(ptr noundef %91)
  store ptr %92, ptr %9, align 8
  br label %93

93:                                               ; preds = %90
  %94 = load i32, ptr %8, align 4
  %95 = add i32 %94, 1
  store i32 %95, ptr %8, align 4
  br label %13, !llvm.loop !13

96:                                               ; preds = %13
  store ptr null, ptr %4, align 8
  store i32 1, ptr %10, align 4
  br label %97

97:                                               ; preds = %96, %82, %81
  call void @llvm.lifetime.end.p0(i64 8, ptr %9) #9
  call void @llvm.lifetime.end.p0(i64 4, ptr %8) #9
  %98 = load ptr, ptr %4, align 8
  ret ptr %98
}