; Function Attrs: null_pointer_is_valid sspstrong uwtable
define ptr @json_get_string(ptr noundef %0, ptr noundef readonly %1, ptr noundef readonly captures(none) %2) local_unnamed_addr #0 {
  %4 = getelementptr inbounds nuw i8, ptr %1, i64 12
  %5 = load i32, ptr %4, align 4
  %6 = icmp sgt i32 %5, 0
  br i1 %6, label %.lr.ph.preheader, label %.loopexit

.lr.ph.preheader:                                 ; preds = %3
  %7 = getelementptr i8, ptr %1, i64 16
  br label %.lr.ph

.lr.ph:                                           ; preds = %.lr.ph.preheader, %45
  %.026 = phi ptr [ %46, %45 ], [ %7, %.lr.ph.preheader ]
  %.02225 = phi i32 [ %47, %45 ], [ 0, %.lr.ph.preheader ]
  %8 = load i32, ptr %.026, align 4
  %9 = icmp eq i32 %8, 3
  br i1 %9, label %10, label %45

10:                                               ; preds = %.lr.ph
  %11 = getelementptr inbounds nuw i8, ptr %.026, i64 4
  %12 = load i32, ptr %11, align 4
  %13 = sext i32 %12 to i64
  %14 = getelementptr i8, ptr %0, i64 %13
  %15 = getelementptr inbounds nuw i8, ptr %.026, i64 8
  %16 = load i32, ptr %15, align 4
  %17 = sub i32 %16, %12
  %18 = sext i32 %17 to i64
  %19 = tail call i32 @strncmp(ptr noundef %14, ptr noundef %2, i64 noundef %18) #12
  %.not = icmp eq i32 %19, 0
  br i1 %.not, label %20, label %45

20:                                               ; preds = %10
  %21 = tail call i64 @strlen(ptr noundef %2) #12
  %22 = icmp eq i64 %21, %18
  br i1 %22, label %23, label %45

23:                                               ; preds = %20
  %24 = getelementptr inbounds nuw i8, ptr %.026, i64 12
  %25 = load i32, ptr %24, align 4
  %26 = icmp eq i32 %25, 1
  br i1 %26, label %27, label %45

27:                                               ; preds = %23
  %28 = getelementptr i8, ptr %.026, i64 16
  %29 = load i32, ptr %28, align 4
  %30 = icmp eq i32 %29, 3
  br i1 %30, label %31, label %45

31:                                               ; preds = %27
  %32 = getelementptr i8, ptr %.026, i64 24
  %33 = load i32, ptr %32, align 4
  %34 = sext i32 %33 to i64
  %35 = getelementptr i8, ptr %0, i64 %34
  store i8 0, ptr %35, align 1
  %36 = getelementptr i8, ptr %.026, i64 20
  %37 = load i32, ptr %36, align 4
  %38 = sext i32 %37 to i64
  %39 = getelementptr i8, ptr %0, i64 %38
  %40 = tail call zeroext i1 @json_decode_string_inplace(ptr noundef %39)
  br i1 %40, label %41, label %.loopexit

41:                                               ; preds = %31
  %42 = load i32, ptr %36, align 4
  %43 = sext i32 %42 to i64
  %44 = getelementptr i8, ptr %0, i64 %43
  br label %.loopexit

45:                                               ; preds = %27, %23, %20, %10, %.lr.ph
  %46 = tail call fastcc ptr @json_get_next_object(ptr noundef %.026)
  %47 = add nuw nsw i32 %.02225, 1
  %exitcond.not = icmp eq i32 %47, %5
  br i1 %exitcond.not, label %.loopexit, label %.lr.ph, !llvm.loop !11

.loopexit:                                        ; preds = %45, %3, %31, %41
  %.023 = phi ptr [ %44, %41 ], [ null, %31 ], [ null, %3 ], [ null, %45 ]
  ret ptr %.023
}